target datalayout = "e-m:e-p270:32:32-p271:32:32-p272:64:64-i64:64-i128:128-f80:128-n8:16:32:64-S128"
target triple = "x86_64-pc-linux-gnu"

%struct.object_id = type { [32 x i8], i32 }
%struct.unpack_trees_options = type { i32, i32, i32, i32, i32, i32, i32, i32, i32, i32, i32, i32, i32, i32, i32, i32, i32, ptr, ptr, ptr, ptr, i32, ptr, ptr, ptr, ptr, %struct.checkout_metadata, %struct.unpack_trees_options_internal }
%struct.checkout_metadata = type { ptr, %struct.object_id, %struct.object_id }
%struct.unpack_trees_options_internal = type { i32, i32, i32, i32, i32, [12 x ptr], %struct.strvec, [12 x %struct.string_list], %struct.index_state, ptr, ptr }
%struct.strvec = type { ptr, i64, i64 }
%struct.string_list = type { ptr, i64, i64, i8, ptr }
%struct.index_state = type { ptr, i32, i32, i32, i32, ptr, ptr, ptr, %struct.cache_time, i8, i32, %struct.hashmap, %struct.hashmap, %struct.object_id, ptr, ptr, ptr, ptr, ptr, ptr, ptr }
%struct.cache_time = type { i32, i32 }
%struct.hashmap = type { ptr, ptr, ptr, i32, i32, i32, i32, i8 }
%struct.option = type { i32, i32, ptr, ptr, ptr, ptr, i32, ptr, i64, ptr, i64, ptr }

@.str.49 = private unnamed_addr constant [20 x i8] c"builtin/read-tree.c\00", align 1
@.str.50 = private unnamed_addr constant [41 x i8] c"option callback does not expect negation\00", align 1
@.str.51 = private unnamed_addr constant [49 x i8] c"--exclude-per-directory is meaningless unless -u\00", align 1
@.str.52 = private unnamed_addr constant [11 x i8] c".gitignore\00", align 1
@.str.53 = private unnamed_addr constant [52 x i8] c"--exclude-per-directory argument must be .gitignore\00", align 1

; Function Attrs: nounwind uwtable
define internal i32 @exclude_per_directory_cb(ptr noundef %0, ptr noundef %1, i32 noundef %2) #0 {
  %4 = alloca ptr, align 8
  %5 = alloca ptr, align 8
  %6 = alloca i32, align 4
  %7 = alloca ptr, align 8
  store ptr %0, ptr %4, align 8, !tbaa !91
  store ptr %1, ptr %5, align 8, !tbaa !11
  store i32 %2, ptr %6, align 4, !tbaa !4
  call void @llvm.lifetime.start.p0(i64 8, ptr %7) #8
  br label %8

8:                                                ; preds = %3
  %9 = load i32, ptr %6, align 4, !tbaa !4
  %10 = icmp ne i32 %9, 0
  br i1 %10, label %11, label %12

11:                                               ; preds = %8
  call void (ptr, i32, ptr, ...) @BUG_fl(ptr noundef @.str.49, i32 noundef 61, ptr noundef @.str.50) #9
  unreachable

12:                                               ; preds = %8
  br label %13

13:                                               ; preds = %12
  br label %14

14:                                               ; preds = %13
  %15 = load ptr, ptr %4, align 8, !tbaa !91
  %16 = getelementptr inbounds nuw %struct.option, ptr %15, i32 0, i32 3
  %17 = load ptr, ptr %16, align 8, !tbaa !20
  store ptr %17, ptr %7, align 8, !tbaa !93
  %18 = load ptr, ptr %7, align 8, !tbaa !93
  %19 = getelementptr inbounds nuw %struct.unpack_trees_options, ptr %18, i32 0, i32 1
  %20 = load i32, ptr %19, align 4, !tbaa !76
  %21 = icmp ne i32 %20, 0
  br i1 %21, label %23, label %22

22:                                               ; preds = %14
  call void (ptr, ...) @die(ptr noundef @.str.51) #9
  unreachable

23:                                               ; preds = %14
  %24 = load ptr, ptr %5, align 8, !tbaa !11
  %25 = call i32 @strcmp(ptr noundef %24, ptr noundef @.str.52) #10
  %26 = icmp ne i32 %25, 0
  br i1 %26, label %27, label %28

27:                                               ; preds = %23
  call void (ptr, ...) @die(ptr noundef @.str.53) #9
  unreachable

28:                                               ; preds = %23
  call void @llvm.lifetime.end.p0(i64 8, ptr %7) #8
  ret i32 0
}