; Function Attrs: nounwind uwtable
define internal noundef i32 @exclude_per_directory_cb(ptr noundef readonly captures(none) %0, ptr noundef readonly captures(none) %1, i32 noundef %2) #0 {
  %.not = icmp eq i32 %2, 0
  br i1 %.not, label %5, label %4

4:                                                ; preds = %3
  tail call void (ptr, i32, ptr, ...) @BUG_fl(ptr noundef nonnull @.str.49, i32 noundef 61, ptr noundef nonnull @.str.50) #12
  unreachable

5:                                                ; preds = %3
  %6 = getelementptr inbounds nuw i8, ptr %0, i64 16
  %7 = load ptr, ptr %6, align 8, !tbaa !14
  %8 = getelementptr inbounds nuw i8, ptr %7, i64 4
  %9 = load i32, ptr %8, align 4, !tbaa !74
  %.not3 = icmp eq i32 %9, 0
  br i1 %.not3, label %10, label %11

10:                                               ; preds = %5
  tail call void (ptr, ...) @die(ptr noundef nonnull @.str.51) #12
  unreachable

11:                                               ; preds = %5
  %12 = tail call i32 @strcmp(ptr noundef nonnull dereferenceable(1) %1, ptr noundef nonnull dereferenceable(11) @.str.52) #13
  %.not4 = icmp eq i32 %12, 0
  br i1 %.not4, label %14, label %13

13:                                               ; preds = %11
  tail call void (ptr, ...) @die(ptr noundef nonnull @.str.53) #12
  unreachable

14:                                               ; preds = %11
  ret i32 0
}